; Function Attrs: nounwind sspstrong uwtable
define hidden range(i32 0, 2) i32 @FLAC__bitwriter_write_byte_block(ptr noundef %bw, ptr noundef readonly captures(none) %vals, i32 noundef %nvals) local_unnamed_addr #7 {
entry:
  %capacity = getelementptr inbounds nuw i8, ptr %bw, i64 16
  %0 = load i32, ptr %capacity, align 8
  %words = getelementptr inbounds nuw i8, ptr %bw, i64 20
  %1 = load i32, ptr %words, align 4
  %div8 = lshr i32 %nvals, 3
  %add = add nuw nsw i32 %div8, 1
  %add1 = add i32 %add, %1
  %cmp.not = icmp ugt i32 %0, %add1
  br i1 %cmp.not, label %if.end, label %land.lhs.true

land.lhs.true:                                    ; preds = %entry
  %mul = shl i32 %nvals, 3
  %bits.i = getelementptr inbounds nuw i8, ptr %bw, i64 24
  %2 = load i32, ptr %bits.i, align 8
  %add.i = add i32 %mul, 63
  %sub.i = add i32 %add.i, %2
  %div15.i = lshr i32 %sub.i, 6
  %add2.i = add i32 %div15.i, %1
  %cmp.not.i = icmp ult i32 %0, %add2.i
  br i1 %cmp.not.i, label %if.end.i, label %if.end

if.end.i:                                         ; preds = %land.lhs.true
  %conv.i = zext i32 %add2.i to i64
  %mul.i = shl nuw nsw i64 %conv.i, 3
  %3 = load i32, ptr @FLAC__STREAM_METADATA_LENGTH_LEN, align 4
  %shl.i = shl nuw i32 1, %3
  %conv3.i = zext i32 %shl.i to i64
  %cmp4.i = icmp samesign ugt i64 %mul.i, %conv3.i
  br i1 %cmp4.i, label %return, label %if.end7.i

if.end7.i:                                        ; preds = %if.end.i
  %sub9.i = sub i32 %add2.i, %0
  %rem.i = and i32 %sub9.i, 511
  %tobool.not.i = icmp eq i32 %rem.i, 0
  %reass.sub.i = add i32 %add2.i, 512
  %add15.i = sub i32 %reass.sub.i, %rem.i
  %new_capacity.0.i = select i1 %tobool.not.i, i32 %add2.i, i32 %add15.i
  %4 = load ptr, ptr %bw, align 8
  %conv17.i = zext i32 %new_capacity.0.i to i64
  %mul.i.i = shl nuw nsw i64 %conv17.i, 3
  %call4.i.i = tail call noalias noundef ptr @realloc(ptr noundef %4, i64 noundef %mul.i.i) #17
  %cmp18.i = icmp eq ptr %call4.i.i, null
  br i1 %cmp18.i, label %return, label %if.end21.i

if.end21.i:                                       ; preds = %if.end7.i
  store ptr %call4.i.i, ptr %bw, align 8
  store i32 %new_capacity.0.i, ptr %capacity, align 8
  br label %if.end

if.end:                                           ; preds = %if.end21.i, %land.lhs.true, %entry
  %cmp211.not = icmp eq i32 %nvals, 0
  br i1 %cmp211.not, label %return, label %for.body.preheader

for.body.preheader:                               ; preds = %if.end
  %wide.trip.count = zext i32 %nvals to i64
  br label %for.body

for.cond:                                         ; preds = %for.body
  %indvars.iv.next = add nuw nsw i64 %indvars.iv, 1
  %exitcond.not = icmp eq i64 %indvars.iv.next, %wide.trip.count
  br i1 %exitcond.not, label %return, label %for.body, !llvm.loop !6

for.body:                                         ; preds = %for.body.preheader, %for.cond
  %indvars.iv = phi i64 [ 0, %for.body.preheader ], [ %indvars.iv.next, %for.cond ]
  %arrayidx = getelementptr inbounds nuw i8, ptr %vals, i64 %indvars.iv
  %5 = load i8, ptr %arrayidx, align 1
  %conv = zext i8 %5 to i32
  %call3 = tail call fastcc i32 @FLAC__bitwriter_write_raw_uint32_nocheck(ptr noundef %bw, i32 noundef %conv, i32 noundef 8)
  %tobool4.not = icmp eq i32 %call3, 0
  br i1 %tobool4.not, label %return, label %for.cond

return:                                           ; preds = %for.body, %for.cond, %if.end, %if.end7.i, %if.end.i
  %retval.0 = phi i32 [ 0, %if.end.i ], [ 0, %if.end7.i ], [ 1, %if.end ], [ 0, %for.body ], [ 1, %for.cond ]
  ret i32 %retval.0
}